; ModuleID = '24/1297.c'
source_filename = "24/1297.c"
target datalayout = "e-m:e-p270:32:32-p271:32:32-p272:64:64-i64:64-f80:128-n8:16:32:64-S128"
target triple = "x86_64-pc-linux-gnu"

@.str = private unnamed_addr constant [3 x i8] c"%c\00", align 1
@.str.1 = private unnamed_addr constant [2 x i8] c"\0A\00", align 1

; Function Attrs: noinline nounwind uwtable
define dso_local void @main() #0 {
  %1 = alloca i8*, align 8
  %2 = alloca i8*, align 8
  %3 = alloca i8*, align 8
  %4 = alloca i8*, align 8
  %5 = alloca i32, align 4
  %6 = alloca i32, align 4
  %7 = alloca i32, align 4
  %8 = alloca i32, align 4
  %9 = alloca i32, align 4
  %10 = alloca i32, align 4
  %11 = alloca i32, align 4
  %12 = alloca i32, align 4
  store i32 0, i32* %11, align 4
  store i32 10000, i32* %12, align 4
  %13 = call noalias i8* @malloc(i64 1000) #4
  store i8* %13, i8** %1, align 8
  %14 = call noalias i8* @malloc(i64 1000) #4
  store i8* %14, i8** %2, align 8
  %15 = call noalias i8* @malloc(i64 1000) #4
  store i8* %15, i8** %3, align 8
  %16 = call noalias i8* @malloc(i64 1000) #4
  store i8* %16, i8** %4, align 8
  %17 = load i8*, i8** %1, align 8
  %18 = call i32 (i8*, ...) bitcast (i32 (...)* @gets to i32 (i8*, ...)*)(i8* %17)
  %19 = load i8*, i8** %1, align 8
  %20 = call i64 @strlen(i8* %19) #5
  %21 = trunc i64 %20 to i32
  store i32 %21, i32* %9, align 4
  %22 = load i8*, i8** %1, align 8
  store i8* %22, i8** %2, align 8
  br label %23

23:                                               ; preds = %63, %0
  %24 = load i8*, i8** %1, align 8
  %25 = load i8, i8* %24, align 1
  %26 = sext i8 %25 to i32
  %27 = icmp eq i32 %26, 32
  br i1 %27, label %33, label %28

28:                                               ; preds = %23
  %29 = load i8*, i8** %1, align 8
  %30 = load i8, i8* %29, align 1
  %31 = sext i8 %30 to i32
  %32 = icmp eq i32 %31, 0
  br i1 %32, label %33, label %62

33:                                               ; preds = %28, %23
  %34 = load i8*, i8** %1, align 8
  %35 = load i8*, i8** %2, align 8
  %36 = ptrtoint i8* %34 to i64
  %37 = ptrtoint i8* %35 to i64
  %38 = sub i64 %36, %37
  %39 = trunc i64 %38 to i32
  store i32 %39, i32* %8, align 4
  %40 = load i32, i32* %8, align 4
  %41 = load i32, i32* %11, align 4
  %42 = icmp sgt i32 %40, %41
  br i1 %42, label %43, label %46

43:                                               ; preds = %33
  %44 = load i32, i32* %8, align 4
  store i32 %44, i32* %11, align 4
  %45 = load i8*, i8** %2, align 8
  store i8* %45, i8** %3, align 8
  br label %46

46:                                               ; preds = %43, %33
  %47 = load i32, i32* %8, align 4
  %48 = load i32, i32* %12, align 4
  %49 = icmp slt i32 %47, %48
  br i1 %49, label %50, label %53

50:                                               ; preds = %46
  %51 = load i32, i32* %8, align 4
  store i32 %51, i32* %12, align 4
  %52 = load i8*, i8** %2, align 8
  store i8* %52, i8** %4, align 8
  br label %53

53:                                               ; preds = %50, %46
  %54 = load i8*, i8** %1, align 8
  %55 = load i8, i8* %54, align 1
  %56 = sext i8 %55 to i32
  %57 = icmp eq i32 %56, 0
  br i1 %57, label %58, label %59

58:                                               ; preds = %53
  br label %66

59:                                               ; preds = %53
  %60 = load i8*, i8** %1, align 8
  %61 = getelementptr inbounds i8, i8* %60, i64 1
  store i8* %61, i8** %2, align 8
  br label %62

62:                                               ; preds = %59, %28
  br label %63

63:                                               ; preds = %62
  %64 = load i8*, i8** %1, align 8
  %65 = getelementptr inbounds i8, i8* %64, i32 1
  store i8* %65, i8** %1, align 8
  br label %23

66:                                               ; preds = %58
  store i32 0, i32* %5, align 4
  br label %67

67:                                               ; preds = %93, %66
  %68 = load i8*, i8** %3, align 8
  %69 = load i32, i32* %5, align 4
  %70 = sext i32 %69 to i64
  %71 = getelementptr inbounds i8, i8* %68, i64 %70
  %72 = load i8, i8* %71, align 1
  %73 = sext i8 %72 to i32
  %74 = icmp ne i32 %73, 32
  br i1 %74, label %75, label %83

75:                                               ; preds = %67
  %76 = load i8*, i8** %3, align 8
  %77 = load i32, i32* %5, align 4
  %78 = sext i32 %77 to i64
  %79 = getelementptr inbounds i8, i8* %76, i64 %78
  %80 = load i8, i8* %79, align 1
  %81 = sext i8 %80 to i32
  %82 = icmp ne i32 %81, 0
  br label %83

83:                                               ; preds = %75, %67
  %84 = phi i1 [ false, %67 ], [ %82, %75 ]
  br i1 %84, label %85, label %96

85:                                               ; preds = %83
  %86 = load i8*, i8** %3, align 8
  %87 = load i32, i32* %5, align 4
  %88 = sext i32 %87 to i64
  %89 = getelementptr inbounds i8, i8* %86, i64 %88
  %90 = load i8, i8* %89, align 1
  %91 = sext i8 %90 to i32
  %92 = call i32 (i8*, ...) @printf(i8* getelementptr inbounds ([3 x i8], [3 x i8]* @.str, i64 0, i64 0), i32 %91)
  br label %93

93:                                               ; preds = %85
  %94 = load i32, i32* %5, align 4
  %95 = add nsw i32 %94, 1
  store i32 %95, i32* %5, align 4
  br label %67

96:                                               ; preds = %83
  %97 = call i32 (i8*, ...) @printf(i8* getelementptr inbounds ([2 x i8], [2 x i8]* @.str.1, i64 0, i64 0))
  store i32 0, i32* %5, align 4
  br label %98

98:                                               ; preds = %124, %96
  %99 = load i8*, i8** %4, align 8
  %100 = load i32, i32* %5, align 4
  %101 = sext i32 %100 to i64
  %102 = getelementptr inbounds i8, i8* %99, i64 %101
  %103 = load i8, i8* %102, align 1
  %104 = sext i8 %103 to i32
  %105 = icmp ne i32 %104, 32
  br i1 %105, label %106, label %114

106:                                              ; preds = %98
  %107 = load i8*, i8** %4, align 8
  %108 = load i32, i32* %5, align 4
  %109 = sext i32 %108 to i64
  %110 = getelementptr inbounds i8, i8* %107, i64 %109
  %111 = load i8, i8* %110, align 1
  %112 = sext i8 %111 to i32
  %113 = icmp ne i32 %112, 0
  br label %114

114:                                              ; preds = %106, %98
  %115 = phi i1 [ false, %98 ], [ %113, %106 ]
  br i1 %115, label %116, label %127

116:                                              ; preds = %114
  %117 = load i8*, i8** %4, align 8
  %118 = load i32, i32* %5, align 4
  %119 = sext i32 %118 to i64
  %120 = getelementptr inbounds i8, i8* %117, i64 %119
  %121 = load i8, i8* %120, align 1
  %122 = sext i8 %121 to i32
  %123 = call i32 (i8*, ...) @printf(i8* getelementptr inbounds ([3 x i8], [3 x i8]* @.str, i64 0, i64 0), i32 %122)
  br label %124

124:                                              ; preds = %116
  %125 = load i32, i32* %5, align 4
  %126 = add nsw i32 %125, 1
  store i32 %126, i32* %5, align 4
  br label %98

127:                                              ; preds = %114
  %128 = call i32 (i8*, ...) @printf(i8* getelementptr inbounds ([2 x i8], [2 x i8]* @.str.1, i64 0, i64 0))
  ret void
}

; Function Attrs: nounwind
declare dso_local noalias i8* @malloc(i64) #1

declare dso_local i32 @gets(...) #2

; Function Attrs: nounwind readonly
declare dso_local i64 @strlen(i8*) #3

declare dso_local i32 @printf(i8*, ...) #2


!llvm.module.flags = !{!0}
!llvm.ident = !{!1}

!0 = !{i32 1, !"wchar_size", i32 4}
!1 = !{!"clang version 10.0.0-4ubuntu1 "}
